target datalayout = "e-m:e-p270:32:32-p271:32:32-p272:64:64-i64:64-i128:128-f80:128-n8:16:32:64-S128"
target triple = "x86_64-pc-linux-gnu"

%struct.mbedtls_ssl_context = type { ptr, i32, i32, i32, i32, i32, ptr, ptr, ptr, ptr, ptr, ptr, ptr, ptr, ptr, ptr, ptr, ptr, ptr, ptr, ptr, ptr, ptr, ptr, ptr, ptr, ptr, ptr, ptr, ptr, ptr, ptr, ptr, i32, i64, i64, i16, i64, i64, i64, i64, i32, i32, i8, i8, i32, i8, ptr, ptr, ptr, ptr, ptr, ptr, ptr, i32, i64, i64, [8 x i8], i16, ptr, ptr, ptr, i64, i32, i64, [12 x i8], [12 x i8], [32 x i8], i8, i8, ptr, ptr, %union.mbedtls_ssl_user_data_t }
%union.mbedtls_ssl_user_data_t = type { i64 }
%struct.mbedtls_ssl_config = type { i32, i32, i8, i8, i8, i8, i8, i8, i8, i8, i8, i8, i16, i8, i8, i8, ptr, i32, ptr, ptr, ptr, ptr, ptr, ptr, ptr, ptr, ptr, ptr, ptr, ptr, ptr, ptr, ptr, ptr, ptr, ptr, ptr, i64, ptr, ptr, ptr, ptr, ptr, ptr, ptr, ptr, %struct.mbedtls_mpi, %struct.mbedtls_mpi, ptr, i64, ptr, i64, ptr, i32, i32, i32, i32, [8 x i8], i32, i32, %union.mbedtls_ssl_user_data_t, ptr, ptr }
%struct.mbedtls_mpi = type { ptr, i16, i16 }
%struct.mbedtls_ssl_handshake_params = type { i8, i8, i8, i8, i8, i32, i8, i8, i8, i8, ptr, ptr, ptr, ptr, ptr, i8, i8, i8, i8, i16, i16, [20 x i16], ptr, ptr, %struct.mbedtls_dhm_context, %struct.mbedtls_ecdh_context, i16, i64, i32, i8, [1024 x i8], i64, ptr, ptr, i64, i16, ptr, ptr, ptr, ptr, %struct.anon, ptr, i16, i8, i32, i32, i32, ptr, ptr, ptr, i32, ptr, [8 x i8], i8, [32 x i8], i8, i16, %struct.mbedtls_md_context_t, %struct.mbedtls_md_context_t, i16, i8, %union.anon.1, [64 x i8], [1076 x i8], i64, i32, i32, i8, ptr, ptr, %union.anon.4, %struct.mbedtls_ssl_tls13_handshake_secrets, ptr, i64, ptr }
%struct.mbedtls_dhm_context = type { %struct.mbedtls_mpi, %struct.mbedtls_mpi, %struct.mbedtls_mpi, %struct.mbedtls_mpi, %struct.mbedtls_mpi, %struct.mbedtls_mpi, %struct.mbedtls_mpi, %struct.mbedtls_mpi, %struct.mbedtls_mpi, %struct.mbedtls_mpi }
%struct.mbedtls_ecdh_context = type { i8, i32, i32, %union.anon }
%union.anon = type { %struct.mbedtls_ecdh_context_mbed }
%struct.mbedtls_ecdh_context_mbed = type { %struct.mbedtls_ecp_group, %struct.mbedtls_mpi, %struct.mbedtls_ecp_point, %struct.mbedtls_ecp_point, %struct.mbedtls_mpi }
%struct.mbedtls_ecp_group = type { i32, %struct.mbedtls_mpi, %struct.mbedtls_mpi, %struct.mbedtls_mpi, %struct.mbedtls_ecp_point, %struct.mbedtls_mpi, i64, i64, i32, ptr, ptr, ptr, ptr, ptr, i64 }
%struct.mbedtls_ecp_point = type { %struct.mbedtls_mpi, %struct.mbedtls_mpi, %struct.mbedtls_mpi }
%struct.anon = type { i64, i8, [4 x %struct.mbedtls_ssl_hs_buffer], %struct.anon.0 }
%struct.mbedtls_ssl_hs_buffer = type { i8, ptr, i64 }
%struct.anon.0 = type { ptr, i64, i32 }
%struct.mbedtls_md_context_t = type { ptr, ptr, ptr }
%union.anon.1 = type { %struct.anon.2 }
%struct.anon.2 = type { i8, [64 x i8], i64 }
%union.anon.4 = type { [64 x i8] }
%struct.mbedtls_ssl_tls13_handshake_secrets = type { [64 x i8], [64 x i8] }

@.str = private unnamed_addr constant [130 x i8] c"generated/home/dtcxzyw/WorkSpace/Projects/compilers/llvm-opt-benchmark/bench/lief/bench_build/mbed_src/library/ssl_tls13_client.c\00", align 1
@.str.34 = private unnamed_addr constant [25 x i8] c"missing input data in %s\00", align 1
@.str.61 = private unnamed_addr constant [20 x i8] c"key_share extension\00", align 1
@__func__.ssl_tls13_parse_hrr_key_share_ext = private unnamed_addr constant [34 x i8] c"ssl_tls13_parse_hrr_key_share_ext\00", align 1
@.str.62 = private unnamed_addr constant [22 x i8] c"selected_group ( %d )\00", align 1
@.str.63 = private unnamed_addr constant [25 x i8] c"Invalid key share in HRR\00", align 1

; Function Attrs: inlinehint nounwind uwtable
define internal i32 @mbedtls_ssl_tls13_named_group_is_ffdh(i16 noundef zeroext %0) #3 {
  %2 = alloca i16, align 2
  store i16 %0, ptr %2, align 2, !tbaa !47
  %3 = load i16, ptr %2, align 2, !tbaa !47
  %4 = zext i16 %3 to i32
  %5 = icmp sge i32 %4, 256
  br i1 %5, label %6, label %10

6:                                                ; preds = %1
  %7 = load i16, ptr %2, align 2, !tbaa !47
  %8 = zext i16 %7 to i32
  %9 = icmp sle i32 %8, 260
  br label %10

10:                                               ; preds = %6, %1
  %11 = phi i1 [ false, %1 ], [ %9, %6 ]
  %12 = zext i1 %11 to i32
  ret i32 %12
}

; Function Attrs: inlinehint nounwind uwtable
define internal i32 @mbedtls_ssl_tls13_named_group_is_ecdhe(i16 noundef zeroext %0) #3 {
  %2 = alloca i16, align 2
  store i16 %0, ptr %2, align 2, !tbaa !47
  %3 = load i16, ptr %2, align 2, !tbaa !47
  %4 = zext i16 %3 to i32
  %5 = icmp eq i32 %4, 29
  br i1 %5, label %22, label %6

6:                                                ; preds = %1
  %7 = load i16, ptr %2, align 2, !tbaa !47
  %8 = zext i16 %7 to i32
  %9 = icmp eq i32 %8, 23
  br i1 %9, label %22, label %10

10:                                               ; preds = %6
  %11 = load i16, ptr %2, align 2, !tbaa !47
  %12 = zext i16 %11 to i32
  %13 = icmp eq i32 %12, 24
  br i1 %13, label %22, label %14

14:                                               ; preds = %10
  %15 = load i16, ptr %2, align 2, !tbaa !47
  %16 = zext i16 %15 to i32
  %17 = icmp eq i32 %16, 25
  br i1 %17, label %22, label %18

18:                                               ; preds = %14
  %19 = load i16, ptr %2, align 2, !tbaa !47
  %20 = zext i16 %19 to i32
  %21 = icmp eq i32 %20, 30
  br label %22

22:                                               ; preds = %18, %14, %10, %6, %1
  %23 = phi i1 [ true, %14 ], [ true, %10 ], [ true, %6 ], [ true, %1 ], [ %21, %18 ]
  %24 = zext i1 %23 to i32
  ret i32 %24
}

; Function Attrs: alwaysinline nounwind uwtable
define internal zeroext i16 @mbedtls_get_unaligned_uint16(ptr noundef %0) #4 {
  %2 = alloca ptr, align 8
  %3 = alloca i16, align 2
  store ptr %0, ptr %2, align 8, !tbaa !46
  call void @llvm.lifetime.start.p0(i64 2, ptr %3) #10
  %4 = load ptr, ptr %2, align 8, !tbaa !46
  call void @llvm.memcpy.p0.p0.i64(ptr align 2 %3, ptr align 1 %4, i64 2, i1 false)
  %5 = load i16, ptr %3, align 2, !tbaa !47
  call void @llvm.lifetime.end.p0(i64 2, ptr %3) #10
  ret i16 %5
}

; Function Attrs: inlinehint nounwind uwtable
define internal i32 @mbedtls_ssl_chk_buf_ptr(ptr noundef %0, ptr noundef %1, i64 noundef %2) #3 {
  %4 = alloca ptr, align 8
  %5 = alloca ptr, align 8
  %6 = alloca i64, align 8
  store ptr %0, ptr %4, align 8, !tbaa !8
  store ptr %1, ptr %5, align 8, !tbaa !8
  store i64 %2, ptr %6, align 8, !tbaa !14
  %7 = load ptr, ptr %4, align 8, !tbaa !8
  %8 = load ptr, ptr %5, align 8, !tbaa !8
  %9 = icmp ugt ptr %7, %8
  br i1 %9, label %18, label %10

10:                                               ; preds = %3
  %11 = load i64, ptr %6, align 8, !tbaa !14
  %12 = load ptr, ptr %5, align 8, !tbaa !8
  %13 = load ptr, ptr %4, align 8, !tbaa !8
  %14 = ptrtoint ptr %12 to i64
  %15 = ptrtoint ptr %13 to i64
  %16 = sub i64 %14, %15
  %17 = icmp ugt i64 %11, %16
  br label %18

18:                                               ; preds = %10, %3
  %19 = phi i1 [ true, %3 ], [ %17, %10 ]
  %20 = zext i1 %19 to i32
  ret i32 %20
}

; Function Attrs: inlinehint nounwind uwtable
define internal ptr @mbedtls_ssl_get_groups(ptr noundef %0) #3 {
  %2 = alloca ptr, align 8
  %3 = alloca ptr, align 8
  store ptr %0, ptr %3, align 8, !tbaa !3
  %4 = load ptr, ptr %3, align 8, !tbaa !3
  %5 = getelementptr inbounds nuw %struct.mbedtls_ssl_context, ptr %4, i32 0, i32 16
  %6 = load ptr, ptr %5, align 8, !tbaa !52
  %7 = icmp ne ptr %6, null
  br i1 %7, label %8, label %21

8:                                                ; preds = %1
  %9 = load ptr, ptr %3, align 8, !tbaa !3
  %10 = getelementptr inbounds nuw %struct.mbedtls_ssl_context, ptr %9, i32 0, i32 16
  %11 = load ptr, ptr %10, align 8, !tbaa !52
  %12 = getelementptr inbounds nuw %struct.mbedtls_ssl_handshake_params, ptr %11, i32 0, i32 22
  %13 = load ptr, ptr %12, align 8, !tbaa !85
  %14 = icmp ne ptr %13, null
  br i1 %14, label %15, label %21

15:                                               ; preds = %8
  %16 = load ptr, ptr %3, align 8, !tbaa !3
  %17 = getelementptr inbounds nuw %struct.mbedtls_ssl_context, ptr %16, i32 0, i32 16
  %18 = load ptr, ptr %17, align 8, !tbaa !52
  %19 = getelementptr inbounds nuw %struct.mbedtls_ssl_handshake_params, ptr %18, i32 0, i32 22
  %20 = load ptr, ptr %19, align 8, !tbaa !85
  store ptr %20, ptr %2, align 8
  br label %27

21:                                               ; preds = %8, %1
  %22 = load ptr, ptr %3, align 8, !tbaa !3
  %23 = getelementptr inbounds nuw %struct.mbedtls_ssl_context, ptr %22, i32 0, i32 0
  %24 = load ptr, ptr %23, align 8, !tbaa !29
  %25 = getelementptr inbounds nuw %struct.mbedtls_ssl_config, ptr %24, i32 0, i32 45
  %26 = load ptr, ptr %25, align 8, !tbaa !86
  store ptr %26, ptr %2, align 8
  br label %27

27:                                               ; preds = %21, %15
  %28 = load ptr, ptr %2, align 8
  ret ptr %28
}

; Function Attrs: nounwind uwtable
define internal i32 @ssl_tls13_parse_hrr_key_share_ext(ptr noundef %0, ptr noundef %1, ptr noundef %2) #0 {
  %4 = alloca i32, align 4
  %5 = alloca ptr, align 8
  %6 = alloca ptr, align 8
  %7 = alloca ptr, align 8
  %8 = alloca ptr, align 8
  %9 = alloca i32, align 4
  %10 = alloca i32, align 4
  %11 = alloca ptr, align 8
  %12 = alloca i32, align 4
  store ptr %0, ptr %5, align 8, !tbaa !3
  store ptr %1, ptr %6, align 8, !tbaa !8
  store ptr %2, ptr %7, align 8, !tbaa !8
  call void @llvm.lifetime.start.p0(i64 8, ptr %8) #10
  %13 = load ptr, ptr %6, align 8, !tbaa !8
  store ptr %13, ptr %8, align 8, !tbaa !8
  call void @llvm.lifetime.start.p0(i64 4, ptr %9) #10
  call void @llvm.lifetime.start.p0(i64 4, ptr %10) #10
  store i32 0, ptr %10, align 4, !tbaa !12
  call void @llvm.lifetime.start.p0(i64 8, ptr %11) #10
  %14 = load ptr, ptr %5, align 8, !tbaa !3
  %15 = call ptr @mbedtls_ssl_get_groups(ptr noundef %14)
  store ptr %15, ptr %11, align 8, !tbaa !82
  %16 = load ptr, ptr %11, align 8, !tbaa !82
  %17 = icmp eq ptr %16, null
  br i1 %17, label %18, label %19

18:                                               ; preds = %3
  store i32 -24192, ptr %4, align 4
  store i32 1, ptr %12, align 4
  br label %100

19:                                               ; preds = %3
  %20 = load ptr, ptr %5, align 8, !tbaa !3
  %21 = load ptr, ptr %8, align 8, !tbaa !8
  %22 = load ptr, ptr %7, align 8, !tbaa !8
  %23 = load ptr, ptr %6, align 8, !tbaa !8
  %24 = ptrtoint ptr %22 to i64
  %25 = ptrtoint ptr %23 to i64
  %26 = sub i64 %24, %25
  call void @mbedtls_debug_print_buf(ptr noundef %20, i32 noundef 3, ptr noundef @.str, i32 noundef 390, ptr noundef @.str.61, ptr noundef %21, i64 noundef %26)
  br label %27

27:                                               ; preds = %19
  %28 = load ptr, ptr %8, align 8, !tbaa !8
  %29 = load ptr, ptr %7, align 8, !tbaa !8
  %30 = call i32 @mbedtls_ssl_chk_buf_ptr(ptr noundef %28, ptr noundef %29, i64 noundef 2)
  %31 = icmp ne i32 %30, 0
  br i1 %31, label %32, label %35

32:                                               ; preds = %27
  %33 = load ptr, ptr %5, align 8, !tbaa !3
  call void (ptr, i32, ptr, i32, ptr, ...) @mbedtls_debug_print_msg(ptr noundef %33, i32 noundef 1, ptr noundef @.str, i32 noundef 393, ptr noundef @.str.34, ptr noundef @__func__.ssl_tls13_parse_hrr_key_share_ext)
  %34 = load ptr, ptr %5, align 8, !tbaa !3
  call void @mbedtls_ssl_pend_fatal_alert(ptr noundef %34, i8 noundef zeroext 50, i32 noundef -29440)
  store i32 -29440, ptr %4, align 4
  store i32 1, ptr %12, align 4
  br label %100

35:                                               ; preds = %27
  br label %36

36:                                               ; preds = %35
  br label %37

37:                                               ; preds = %36
  %38 = load ptr, ptr %8, align 8, !tbaa !8
  %39 = getelementptr inbounds i8, ptr %38, i64 0
  %40 = call zeroext i16 @mbedtls_get_unaligned_uint16(ptr noundef %39)
  %41 = call i16 @llvm.bswap.i16(i16 %40)
  %42 = zext i16 %41 to i32
  store i32 %42, ptr %9, align 4, !tbaa !12
  %43 = load ptr, ptr %5, align 8, !tbaa !3
  %44 = load i32, ptr %9, align 4, !tbaa !12
  call void (ptr, i32, ptr, i32, ptr, ...) @mbedtls_debug_print_msg(ptr noundef %43, i32 noundef 3, ptr noundef @.str, i32 noundef 395, ptr noundef @.str.62, i32 noundef %44)
  br label %45

45:                                               ; preds = %75, %37
  %46 = load ptr, ptr %11, align 8, !tbaa !82
  %47 = load i16, ptr %46, align 2, !tbaa !47
  %48 = zext i16 %47 to i32
  %49 = icmp ne i32 %48, 0
  br i1 %49, label %50, label %78

50:                                               ; preds = %45
  %51 = load ptr, ptr %11, align 8, !tbaa !82
  %52 = load i16, ptr %51, align 2, !tbaa !47
  %53 = call i32 @mbedtls_ssl_tls13_named_group_is_ecdhe(i16 noundef zeroext %52)
  %54 = icmp ne i32 %53, 0
  br i1 %54, label %55, label %68

55:                                               ; preds = %50
  %56 = load ptr, ptr %11, align 8, !tbaa !82
  %57 = load i16, ptr %56, align 2, !tbaa !47
  %58 = call i32 @mbedtls_ssl_get_psa_curve_info_from_tls_id(i16 noundef zeroext %57, ptr noundef null, ptr noundef null)
  %59 = icmp eq i32 %58, -134
  br i1 %59, label %66, label %60

60:                                               ; preds = %55
  %61 = load ptr, ptr %11, align 8, !tbaa !82
  %62 = load i16, ptr %61, align 2, !tbaa !47
  %63 = zext i16 %62 to i32
  %64 = load i32, ptr %9, align 4, !tbaa !12
  %65 = icmp ne i32 %63, %64
  br i1 %65, label %66, label %67

66:                                               ; preds = %60, %55
  store i32 1, ptr %10, align 4, !tbaa !12
  br label %78

67:                                               ; preds = %60
  br label %68

68:                                               ; preds = %67, %50
  %69 = load ptr, ptr %11, align 8, !tbaa !82
  %70 = load i16, ptr %69, align 2, !tbaa !47
  %71 = call i32 @mbedtls_ssl_tls13_named_group_is_ffdh(i16 noundef zeroext %70)
  %72 = icmp ne i32 %71, 0
  br i1 %72, label %73, label %74

73:                                               ; preds = %68
  store i32 1, ptr %10, align 4, !tbaa !12
  br label %78

74:                                               ; preds = %68
  br label %75

75:                                               ; preds = %74
  %76 = load ptr, ptr %11, align 8, !tbaa !82
  %77 = getelementptr inbounds nuw i16, ptr %76, i32 1
  store ptr %77, ptr %11, align 8, !tbaa !82
  br label %45, !llvm.loop !105

78:                                               ; preds = %73, %66, %45
  %79 = load i32, ptr %10, align 4, !tbaa !12
  %80 = icmp eq i32 %79, 0
  br i1 %80, label %90, label %81

81:                                               ; preds = %78
  %82 = load i32, ptr %9, align 4, !tbaa !12
  %83 = load ptr, ptr %5, align 8, !tbaa !3
  %84 = getelementptr inbounds nuw %struct.mbedtls_ssl_context, ptr %83, i32 0, i32 16
  %85 = load ptr, ptr %84, align 8, !tbaa !52
  %86 = getelementptr inbounds nuw %struct.mbedtls_ssl_handshake_params, ptr %85, i32 0, i32 59
  %87 = load i16, ptr %86, align 8, !tbaa !68
  %88 = zext i16 %87 to i32
  %89 = icmp eq i32 %82, %88
  br i1 %89, label %90, label %93

90:                                               ; preds = %81, %78
  %91 = load ptr, ptr %5, align 8, !tbaa !3
  call void (ptr, i32, ptr, i32, ptr, ...) @mbedtls_debug_print_msg(ptr noundef %91, i32 noundef 1, ptr noundef @.str, i32 noundef 433, ptr noundef @.str.63)
  %92 = load ptr, ptr %5, align 8, !tbaa !3
  call void @mbedtls_ssl_pend_fatal_alert(ptr noundef %92, i8 noundef zeroext 47, i32 noundef -26112)
  store i32 -26112, ptr %4, align 4
  store i32 1, ptr %12, align 4
  br label %100

93:                                               ; preds = %81
  %94 = load i32, ptr %9, align 4, !tbaa !12
  %95 = trunc i32 %94 to i16
  %96 = load ptr, ptr %5, align 8, !tbaa !3
  %97 = getelementptr inbounds nuw %struct.mbedtls_ssl_context, ptr %96, i32 0, i32 16
  %98 = load ptr, ptr %97, align 8, !tbaa !52
  %99 = getelementptr inbounds nuw %struct.mbedtls_ssl_handshake_params, ptr %98, i32 0, i32 59
  store i16 %95, ptr %99, align 8, !tbaa !68
  store i32 0, ptr %4, align 4
  store i32 1, ptr %12, align 4
  br label %100

100:                                              ; preds = %93, %90, %32, %18
  call void @llvm.lifetime.end.p0(i64 8, ptr %11) #10
  call void @llvm.lifetime.end.p0(i64 4, ptr %10) #10
  call void @llvm.lifetime.end.p0(i64 4, ptr %9) #10
  call void @llvm.lifetime.end.p0(i64 8, ptr %8) #10
  %101 = load i32, ptr %4, align 4
  ret i32 %101
}