; Function Attrs: nounwind uwtable
define internal fastcc range(i32 -29440, 1) i32 @ssl_tls13_parse_hrr_key_share_ext(ptr noundef %0, ptr noundef %1, ptr noundef %2) unnamed_addr #0 {
  %4 = getelementptr inbounds nuw i8, ptr %0, i64 112
  %5 = load ptr, ptr %4, align 8, !tbaa !17
  %.not.i = icmp eq ptr %5, null
  br i1 %.not.i, label %mbedtls_ssl_get_groups.exit, label %6

6:                                                ; preds = %3
  %7 = getelementptr inbounds nuw i8, ptr %5, i64 104
  %8 = load ptr, ptr %7, align 8, !tbaa !63
  %.not7.i = icmp eq ptr %8, null
  br i1 %.not7.i, label %mbedtls_ssl_get_groups.exit, label %mbedtls_ssl_get_groups.exit.thread

mbedtls_ssl_get_groups.exit:                      ; preds = %3, %6
  %9 = load ptr, ptr %0, align 8, !tbaa !39
  %10 = getelementptr inbounds nuw i8, ptr %9, i64 256
  %11 = load ptr, ptr %10, align 8, !tbaa !64
  %12 = icmp eq ptr %11, null
  br i1 %12, label %39, label %mbedtls_ssl_get_groups.exit.thread

mbedtls_ssl_get_groups.exit.thread:               ; preds = %6, %mbedtls_ssl_get_groups.exit
  %.0.i36 = phi ptr [ %11, %mbedtls_ssl_get_groups.exit ], [ %8, %6 ]
  %13 = ptrtoint ptr %2 to i64
  %14 = ptrtoint ptr %1 to i64
  %15 = sub i64 %13, %14
  tail call void @mbedtls_debug_print_buf(ptr noundef nonnull %0, i32 noundef 3, ptr noundef nonnull @.str, i32 noundef 390, ptr noundef nonnull @.str.61, ptr noundef %1, i64 noundef %15) #12
  %16 = icmp ule ptr %1, %2
  %17 = icmp ugt i64 %15, 1
  %narrow.i.not = and i1 %16, %17
  br i1 %narrow.i.not, label %19, label %18

18:                                               ; preds = %mbedtls_ssl_get_groups.exit.thread
  tail call void (ptr, i32, ptr, i32, ptr, ...) @mbedtls_debug_print_msg(ptr noundef nonnull %0, i32 noundef 1, ptr noundef nonnull @.str, i32 noundef 393, ptr noundef nonnull @.str.34, ptr noundef nonnull @__func__.ssl_tls13_parse_hrr_key_share_ext) #12
  tail call void @mbedtls_ssl_pend_fatal_alert(ptr noundef nonnull %0, i8 noundef zeroext 50, i32 noundef -29440) #12
  br label %39

19:                                               ; preds = %mbedtls_ssl_get_groups.exit.thread
  %.0.copyload.i = load i16, ptr %1, align 1
  %20 = tail call i16 @llvm.bswap.i16(i16 %.0.copyload.i)
  %21 = zext i16 %20 to i32
  tail call void (ptr, i32, ptr, i32, ptr, ...) @mbedtls_debug_print_msg(ptr noundef nonnull %0, i32 noundef 3, ptr noundef nonnull @.str, i32 noundef 395, ptr noundef nonnull @.str.62, i32 noundef %21) #12
  br label %22

22:                                               ; preds = %28, %19
  %.0 = phi ptr [ %.0.i36, %19 ], [ %32, %28 ]
  %23 = load i16, ptr %.0, align 2, !tbaa !65
  switch i16 %23, label %28 [
    i16 0, label %.critedge
    i16 29, label %mbedtls_ssl_tls13_named_group_is_ecdhe.exit.thread
    i16 25, label %mbedtls_ssl_tls13_named_group_is_ecdhe.exit.thread
    i16 24, label %mbedtls_ssl_tls13_named_group_is_ecdhe.exit.thread
    i16 23, label %mbedtls_ssl_tls13_named_group_is_ecdhe.exit.thread
    i16 30, label %mbedtls_ssl_tls13_named_group_is_ecdhe.exit.thread
  ]

mbedtls_ssl_tls13_named_group_is_ecdhe.exit.thread: ; preds = %22, %22, %22, %22, %22
  %24 = tail call i32 @mbedtls_ssl_get_psa_curve_info_from_tls_id(i16 noundef zeroext %23, ptr noundef null, ptr noundef null) #12
  %25 = icmp eq i32 %24, -134
  br i1 %25, label %33, label %26

26:                                               ; preds = %mbedtls_ssl_tls13_named_group_is_ecdhe.exit.thread
  %27 = load i16, ptr %.0, align 2, !tbaa !65
  %.not33 = icmp eq i16 %27, %20
  br i1 %.not33, label %28, label %33

28:                                               ; preds = %22, %26
  %29 = phi i16 [ %23, %22 ], [ %20, %26 ]
  %30 = add i16 %29, -261
  %31 = icmp ult i16 %30, -5
  %32 = getelementptr inbounds nuw i8, ptr %.0, i64 2
  br i1 %31, label %22, label %33, !llvm.loop !108

33:                                               ; preds = %26, %mbedtls_ssl_tls13_named_group_is_ecdhe.exit.thread, %28
  %34 = load ptr, ptr %4, align 8, !tbaa !17
  %35 = getelementptr inbounds nuw i8, ptr %34, i64 2032
  %36 = load i16, ptr %35, align 8, !tbaa !62
  %37 = icmp eq i16 %20, %36
  br i1 %37, label %.critedge, label %38

.critedge:                                        ; preds = %22, %33
  tail call void (ptr, i32, ptr, i32, ptr, ...) @mbedtls_debug_print_msg(ptr noundef nonnull %0, i32 noundef 1, ptr noundef nonnull @.str, i32 noundef 433, ptr noundef nonnull @.str.63) #12
  tail call void @mbedtls_ssl_pend_fatal_alert(ptr noundef nonnull %0, i8 noundef zeroext 47, i32 noundef -26112) #12
  br label %39

38:                                               ; preds = %33
  store i16 %20, ptr %35, align 8, !tbaa !62
  br label %39

39:                                               ; preds = %mbedtls_ssl_get_groups.exit, %38, %.critedge, %18
  %.029 = phi i32 [ -29440, %18 ], [ -26112, %.critedge ], [ 0, %38 ], [ -24192, %mbedtls_ssl_get_groups.exit ]
  ret i32 %.029
}